target datalayout = "e-m:e-p270:32:32-p271:32:32-p272:64:64-i64:64-i128:128-f80:128-n8:16:32:64-S128"
target triple = "x86_64-pc-linux-gnu"

%struct.rb_io_encoding = type { ptr, ptr, i32, i64 }
%struct.RBasic = type { i64, i64 }
%struct.RData = type { %struct.RBasic, ptr, ptr, ptr }
%struct.argf = type { i64, i64, i64, i64, i64, i64, %struct.rb_io_encoding, i8, i8, i8 }

@.str.84 = private unnamed_addr constant [10 x i8] c"each_line\00", align 1
@argf_each_line.rbimpl_id = internal global i64 0, align 8

; Function Attrs: inlinehint nounwind sspstrong willreturn memory(none) uwtable
define internal zeroext i1 @RB_UNDEF_P(i64 noundef %0) #9 {
  %2 = alloca i64, align 8
  store i64 %0, ptr %2, align 8, !tbaa !32
  %3 = load i64, ptr %2, align 8, !tbaa !32
  %4 = icmp eq i64 %3, 36
  ret i1 %4
}

; Function Attrs: inlinehint nounwind sspstrong willreturn memory(read) uwtable
define internal i64 @rb_intern_const(ptr noundef nonnull %0) #13 {
  %2 = alloca ptr, align 8
  %3 = alloca i64, align 8
  store ptr %0, ptr %2, align 8, !tbaa !30
  call void @llvm.lifetime.start.p0(i64 8, ptr %3) #28
  %4 = load ptr, ptr %2, align 8, !tbaa !30
  %5 = call i64 @strlen(ptr noundef %4) #32
  store i64 %5, ptr %3, align 8, !tbaa !32
  %6 = load ptr, ptr %2, align 8, !tbaa !30
  %7 = load i64, ptr %3, align 8, !tbaa !32
  %8 = call i64 @rb_intern2(ptr noundef %6, i64 noundef %7)
  call void @llvm.lifetime.end.p0(i64 8, ptr %3) #28
  ret i64 %8
}

; Function Attrs: nounwind sspstrong uwtable
define internal void @argf_block_call_line(i64 noundef %0, i32 noundef %1, ptr noundef %2, i64 noundef %3) #0 {
  %5 = alloca i64, align 8
  %6 = alloca i32, align 4
  %7 = alloca ptr, align 8
  %8 = alloca i64, align 8
  %9 = alloca i64, align 8
  store i64 %0, ptr %5, align 8, !tbaa !32
  store i32 %1, ptr %6, align 4, !tbaa !13
  store ptr %2, ptr %7, align 8, !tbaa !90
  store i64 %3, ptr %8, align 8, !tbaa !32
  call void @llvm.lifetime.start.p0(i64 8, ptr %9) #28
  %10 = load i64, ptr %8, align 8, !tbaa !32
  %11 = inttoptr i64 %10 to ptr
  %12 = getelementptr inbounds nuw %struct.RData, ptr %11, i32 0, i32 3
  %13 = load ptr, ptr %12, align 8, !tbaa !62
  %14 = getelementptr inbounds nuw %struct.argf, ptr %13, i32 0, i32 1
  %15 = load i64, ptr %14, align 8, !tbaa !64
  %16 = load i64, ptr %5, align 8, !tbaa !32
  %17 = load i32, ptr %6, align 4, !tbaa !13
  %18 = load ptr, ptr %7, align 8, !tbaa !90
  %19 = load i64, ptr %8, align 8, !tbaa !32
  %20 = call i32 @rb_keyword_given_p()
  %21 = call i64 @rb_block_call_kw(i64 noundef %15, i64 noundef %16, i32 noundef %17, ptr noundef %18, ptr noundef @argf_block_call_line_i, i64 noundef %19, i32 noundef %20)
  store i64 %21, ptr %9, align 8, !tbaa !32
  %22 = load i64, ptr %9, align 8, !tbaa !32
  %23 = call zeroext i1 @RB_UNDEF_P(i64 noundef %22) #33
  br i1 %23, label %30, label %24

24:                                               ; preds = %4
  %25 = load i64, ptr %8, align 8, !tbaa !32
  %26 = inttoptr i64 %25 to ptr
  %27 = getelementptr inbounds nuw %struct.RData, ptr %26, i32 0, i32 3
  %28 = load ptr, ptr %27, align 8, !tbaa !62
  %29 = getelementptr inbounds nuw %struct.argf, ptr %28, i32 0, i32 8
  store i8 1, ptr %29, align 1, !tbaa !137
  br label %30

30:                                               ; preds = %24, %4
  call void @llvm.lifetime.end.p0(i64 8, ptr %9) #28
  ret void
}

; Function Attrs: inlinehint nounwind sspstrong memory(argmem: readwrite, inaccessiblemem: readwrite) uwtable
define internal i64 @rbimpl_intern_const(ptr noundef nonnull %0, ptr noundef nonnull %1) #4 {
  %3 = alloca ptr, align 8
  %4 = alloca ptr, align 8
  store ptr %0, ptr %3, align 8, !tbaa !90
  store ptr %1, ptr %4, align 8, !tbaa !30
  br label %5

5:                                                ; preds = %10, %2
  %6 = load ptr, ptr %3, align 8, !tbaa !90
  %7 = load i64, ptr %6, align 8, !tbaa !32
  %8 = icmp ne i64 %7, 0
  %9 = xor i1 %8, true
  br i1 %9, label %10, label %14

10:                                               ; preds = %5
  %11 = load ptr, ptr %4, align 8, !tbaa !30
  %12 = call i64 @rb_intern_const(ptr noundef %11) #32
  %13 = load ptr, ptr %3, align 8, !tbaa !90
  store i64 %12, ptr %13, align 8, !tbaa !32
  br label %5, !llvm.loop !313

14:                                               ; preds = %5
  %15 = load ptr, ptr %3, align 8, !tbaa !90
  %16 = load i64, ptr %15, align 8, !tbaa !32
  ret i64 %16
}

; Function Attrs: nounwind sspstrong uwtable
define internal i64 @argf_each_line(i32 noundef %0, ptr noundef %1, i64 noundef %2) #0 {
  %4 = alloca i64, align 8
  %5 = alloca i32, align 4
  %6 = alloca ptr, align 8
  %7 = alloca i64, align 8
  %8 = alloca i64, align 8
  store i32 %0, ptr %5, align 4, !tbaa !13
  store ptr %1, ptr %6, align 8, !tbaa !90
  store i64 %2, ptr %7, align 8, !tbaa !32
  br label %9

9:                                                ; preds = %3
  %10 = call i32 @rb_block_given_p()
  %11 = icmp ne i32 %10, 0
  br i1 %11, label %19, label %12

12:                                               ; preds = %9
  %13 = load i64, ptr %7, align 8, !tbaa !32
  %14 = call i64 @rb_frame_this_func()
  %15 = call i64 @rb_id2sym(i64 noundef %14)
  %16 = load i32, ptr %5, align 4, !tbaa !13
  %17 = load ptr, ptr %6, align 8, !tbaa !90
  %18 = call i64 @rb_enumeratorize_with_size(i64 noundef %13, i64 noundef %15, i32 noundef %16, ptr noundef %17, ptr noundef null)
  store i64 %18, ptr %4, align 8
  br label %33

19:                                               ; preds = %9
  br label %20

20:                                               ; preds = %19
  br label %21

21:                                               ; preds = %25, %20
  %22 = load i64, ptr %7, align 8, !tbaa !32
  %23 = call i32 @argf_next_argv(i64 noundef %22)
  %24 = icmp ne i32 %23, 0
  br i1 %24, label %25, label %31

25:                                               ; preds = %21
  %26 = call i64 @rbimpl_intern_const(ptr noundef @argf_each_line.rbimpl_id, ptr noundef @.str.84) #30
  store i64 %26, ptr %8, align 8, !tbaa !32
  %27 = load i64, ptr %8, align 8, !tbaa !32
  %28 = load i32, ptr %5, align 4, !tbaa !13
  %29 = load ptr, ptr %6, align 8, !tbaa !90
  %30 = load i64, ptr %7, align 8, !tbaa !32
  call void @argf_block_call_line(i64 noundef %27, i32 noundef %28, ptr noundef %29, i64 noundef %30)
  br label %21, !llvm.loop !211

31:                                               ; preds = %21
  %32 = load i64, ptr %7, align 8, !tbaa !32
  store i64 %32, ptr %4, align 8
  br label %33

33:                                               ; preds = %31, %12
  %34 = load i64, ptr %4, align 8
  ret i64 %34
}