; Function Attrs: nounwind sspstrong uwtable
define internal i64 @argf_each_line(i32 noundef %0, ptr noundef %1, i64 noundef %2) #0 {
  %4 = tail call i32 @rb_block_given_p() #28
  %.not = icmp eq i32 %4, 0
  br i1 %.not, label %8, label %.preheader

.preheader:                                       ; preds = %3
  %5 = tail call fastcc i32 @argf_next_argv(i64 noundef %2)
  %.not910 = icmp eq i32 %5, 0
  br i1 %.not910, label %.loopexit, label %.lr.ph

.lr.ph:                                           ; preds = %.preheader
  %6 = inttoptr i64 %2 to ptr
  %7 = getelementptr inbounds nuw i8, ptr %6, i64 32
  br label %12

8:                                                ; preds = %3
  %9 = tail call i64 @rb_frame_this_func() #28
  %10 = tail call i64 @rb_id2sym(i64 noundef %9) #28
  %11 = tail call i64 @rb_enumeratorize_with_size(i64 noundef %2, i64 noundef %10, i32 noundef %0, ptr noundef %1, ptr noundef null) #28
  br label %.loopexit

12:                                               ; preds = %.lr.ph, %argf_block_call_line.exit
  %.pr.i = load i64, ptr @argf_each_line.rbimpl_id, align 8, !tbaa !23
  %.not4.i = icmp eq i64 %.pr.i, 0
  br i1 %.not4.i, label %.lr.ph.i, label %rbimpl_intern_const.exit

.lr.ph.i:                                         ; preds = %12, %.lr.ph.i
  %13 = tail call i64 @rb_intern2(ptr noundef nonnull @.str.84, i64 noundef 9) #28
  store i64 %13, ptr @argf_each_line.rbimpl_id, align 8, !tbaa !23
  %.not.i = icmp eq i64 %13, 0
  br i1 %.not.i, label %.lr.ph.i, label %rbimpl_intern_const.exit, !llvm.loop !148

rbimpl_intern_const.exit:                         ; preds = %.lr.ph.i, %12
  %.lcssa.i = phi i64 [ %.pr.i, %12 ], [ %13, %.lr.ph.i ]
  %14 = load ptr, ptr %7, align 8, !tbaa !59
  %15 = getelementptr inbounds nuw i8, ptr %14, i64 8
  %16 = load i64, ptr %15, align 8, !tbaa !61
  %17 = tail call i32 @rb_keyword_given_p() #28
  %18 = tail call i64 @rb_block_call_kw(i64 noundef %16, i64 noundef %.lcssa.i, i32 noundef %0, ptr noundef %1, ptr noundef nonnull @argf_block_call_line_i, i64 noundef %2, i32 noundef %17) #28
  %19 = icmp eq i64 %18, 36
  br i1 %19, label %argf_block_call_line.exit, label %20

20:                                               ; preds = %rbimpl_intern_const.exit
  %21 = load ptr, ptr %7, align 8, !tbaa !59
  %22 = getelementptr inbounds nuw i8, ptr %21, i64 81
  store i8 1, ptr %22, align 1, !tbaa !172
  br label %argf_block_call_line.exit

argf_block_call_line.exit:                        ; preds = %rbimpl_intern_const.exit, %20
  %23 = tail call fastcc i32 @argf_next_argv(i64 noundef %2)
  %.not9 = icmp eq i32 %23, 0
  br i1 %.not9, label %.loopexit, label %12, !llvm.loop !316

.loopexit:                                        ; preds = %argf_block_call_line.exit, %.preheader, %8
  %.0 = phi i64 [ %11, %8 ], [ %2, %.preheader ], [ %2, %argf_block_call_line.exit ]
  ret i64 %.0
}